target datalayout = "e-m:e-p270:32:32-p271:32:32-p272:64:64-i64:64-i128:128-f80:128-n8:16:32:64-S128"
target triple = "x86_64-pc-linux-gnu"

%struct._zend_refcounted_h = type { i32, %union.anon.3 }
%union.anon.3 = type { i32 }
%struct._zval_struct = type { %union._zend_value, %union.anon, %union.anon.2 }
%union._zend_value = type { i64 }
%union.anon = type { i32 }
%union.anon.2 = type { i32 }
%struct._zend_refcounted = type { %struct._zend_refcounted_h }
%struct._zend_execute_data = type { ptr, ptr, ptr, ptr, %struct._zval_struct, ptr, ptr, ptr, ptr }
%struct._zend_object = type { %struct._zend_refcounted_h, i32, ptr, ptr, ptr, [1 x %struct._zval_struct] }

; Function Attrs: nounwind uwtable
define hidden void @zim_SensitiveParameterValue_getValue(ptr noundef %0, ptr noundef %1) #0 {
  %3 = alloca ptr, align 8
  %4 = alloca ptr, align 8
  %5 = alloca ptr, align 8
  %6 = alloca ptr, align 8
  %7 = alloca ptr, align 8
  %8 = alloca ptr, align 8
  %9 = alloca i32, align 4
  store ptr %0, ptr %4, align 8
  store ptr %1, ptr %5, align 8
  br label %10

10:                                               ; preds = %2
  %11 = load ptr, ptr %4, align 8
  %12 = getelementptr inbounds %struct._zend_execute_data, ptr %11, i32 0, i32 4
  %13 = getelementptr inbounds %struct._zval_struct, ptr %12, i32 0, i32 2
  %14 = load i32, ptr %13, align 4
  %15 = icmp ne i32 %14, 0
  %16 = xor i1 %15, true
  %17 = xor i1 %16, true
  %18 = zext i1 %17 to i32
  %19 = sext i32 %18 to i64
  %20 = icmp ne i64 %19, 0
  br i1 %20, label %21, label %22

21:                                               ; preds = %10
  call void @zend_wrong_parameters_none_error()
  br label %56

22:                                               ; preds = %10
  br label %23

23:                                               ; preds = %22
  br label %24

24:                                               ; preds = %23
  %25 = load ptr, ptr %5, align 8
  store ptr %25, ptr %6, align 8
  %26 = load ptr, ptr %4, align 8
  %27 = getelementptr inbounds %struct._zend_execute_data, ptr %26, i32 0, i32 4
  %28 = getelementptr inbounds %struct._zval_struct, ptr %27, i32 0, i32 0
  %29 = load ptr, ptr %28, align 8
  %30 = getelementptr inbounds %struct._zend_object, ptr %29, i32 0, i32 5
  %31 = getelementptr inbounds [1 x %struct._zval_struct], ptr %30, i64 0, i64 0
  store ptr %31, ptr %7, align 8
  %32 = load ptr, ptr %7, align 8
  %33 = getelementptr inbounds %struct._zval_struct, ptr %32, i32 0, i32 0
  %34 = load ptr, ptr %33, align 8
  store ptr %34, ptr %8, align 8
  %35 = load ptr, ptr %7, align 8
  %36 = getelementptr inbounds %struct._zval_struct, ptr %35, i32 0, i32 1
  %37 = load i32, ptr %36, align 8
  store i32 %37, ptr %9, align 4
  br label %38

38:                                               ; preds = %24
  %39 = load ptr, ptr %8, align 8
  %40 = load ptr, ptr %6, align 8
  %41 = getelementptr inbounds %struct._zval_struct, ptr %40, i32 0, i32 0
  store ptr %39, ptr %41, align 8
  %42 = load i32, ptr %9, align 4
  %43 = load ptr, ptr %6, align 8
  %44 = getelementptr inbounds %struct._zval_struct, ptr %43, i32 0, i32 1
  store i32 %42, ptr %44, align 8
  br label %45

45:                                               ; preds = %38
  %46 = load i32, ptr %9, align 4
  %47 = and i32 %46, 65280
  %48 = icmp ne i32 %47, 0
  br i1 %48, label %49, label %55

49:                                               ; preds = %45
  %50 = load ptr, ptr %8, align 8
  %51 = getelementptr inbounds %struct._zend_refcounted, ptr %50, i32 0, i32 0
  store ptr %51, ptr %3, align 8
  %52 = load ptr, ptr %3, align 8
  %53 = load i32, ptr %52, align 4
  %54 = add i32 %53, 1
  store i32 %54, ptr %52, align 4
  br label %55

55:                                               ; preds = %49, %45
  br label %56

56:                                               ; preds = %55, %21
  ret void
}