; Function Attrs: nounwind uwtable
define hidden void @zim_SensitiveParameterValue_getValue(ptr nocapture noundef readonly %0, ptr nocapture noundef writeonly %1) #0 {
  %3 = getelementptr inbounds i8, ptr %0, i64 44
  %4 = load i32, ptr %3, align 4
  %.not = icmp eq i32 %4, 0
  br i1 %.not, label %6, label %5

5:                                                ; preds = %2
  tail call void @zend_wrong_parameters_none_error() #16
  br label %18

6:                                                ; preds = %2
  %7 = getelementptr inbounds i8, ptr %0, i64 32
  %8 = load ptr, ptr %7, align 8
  %9 = getelementptr inbounds i8, ptr %8, i64 40
  %10 = load ptr, ptr %9, align 8
  %11 = getelementptr inbounds i8, ptr %8, i64 48
  %12 = load i32, ptr %11, align 8
  store ptr %10, ptr %1, align 8
  %13 = getelementptr inbounds i8, ptr %1, i64 8
  store i32 %12, ptr %13, align 8
  %14 = and i32 %12, 65280
  %.not11 = icmp eq i32 %14, 0
  br i1 %.not11, label %18, label %15

15:                                               ; preds = %6
  %16 = load i32, ptr %10, align 4
  %17 = add i32 %16, 1
  store i32 %17, ptr %10, align 4
  br label %18

18:                                               ; preds = %6, %15, %5
  ret void
}